target datalayout = "e-m:e-p270:32:32-p271:32:32-p272:64:64-i64:64-i128:128-f80:128-n8:16:32:64-S128"
target triple = "x86_64-pc-linux-gnu"

%class.PathString = type { ptr }
%class.SystemProperty = type <{ %class.PathString, ptr, ptr, i8, i8, [6 x i8] }>

; Function Attrs: mustprogress nounwind uwtable
define linkonce_odr hidden void @_ZN14SystemProperty8set_nextEPS_(ptr noundef nonnull align 8 dereferenceable(26) %0, ptr noundef %1) #1 comdat align 2 {
  %3 = alloca ptr, align 8
  %4 = alloca ptr, align 8
  store ptr %0, ptr %3, align 8
  store ptr %1, ptr %4, align 8
  %5 = load ptr, ptr %3, align 8
  %6 = load ptr, ptr %4, align 8
  %7 = getelementptr inbounds %class.SystemProperty, ptr %5, i32 0, i32 2
  store ptr %6, ptr %7, align 8
  ret void
}

; Function Attrs: mustprogress nounwind uwtable
define linkonce_odr hidden noundef ptr @_ZNK14SystemProperty4nextEv(ptr noundef nonnull align 8 dereferenceable(26) %0) #1 comdat align 2 {
  %2 = alloca ptr, align 8
  store ptr %0, ptr %2, align 8
  %3 = load ptr, ptr %2, align 8
  %4 = getelementptr inbounds %class.SystemProperty, ptr %3, i32 0, i32 2
  %5 = load ptr, ptr %4, align 8
  ret ptr %5
}

; Function Attrs: mustprogress nounwind uwtable
define hidden void @_ZN9Arguments16PropertyList_addEPP14SystemPropertyS1_(ptr noundef %0, ptr noundef %1) #1 align 2 {
  %3 = alloca ptr, align 8
  %4 = alloca ptr, align 8
  %5 = alloca ptr, align 8
  store ptr %0, ptr %3, align 8
  store ptr %1, ptr %4, align 8
  %6 = load ptr, ptr %3, align 8
  %7 = load ptr, ptr %6, align 8
  store ptr %7, ptr %5, align 8
  %8 = load ptr, ptr %5, align 8
  %9 = icmp eq ptr %8, null
  br i1 %9, label %10, label %13

10:                                               ; preds = %2
  %11 = load ptr, ptr %4, align 8
  %12 = load ptr, ptr %3, align 8
  store ptr %11, ptr %12, align 8
  br label %24

13:                                               ; preds = %2
  br label %14

14:                                               ; preds = %18, %13
  %15 = load ptr, ptr %5, align 8
  %16 = call noundef ptr @_ZNK14SystemProperty4nextEv(ptr noundef nonnull align 8 dereferenceable(26) %15)
  %17 = icmp ne ptr %16, null
  br i1 %17, label %18, label %21

18:                                               ; preds = %14
  %19 = load ptr, ptr %5, align 8
  %20 = call noundef ptr @_ZNK14SystemProperty4nextEv(ptr noundef nonnull align 8 dereferenceable(26) %19)
  store ptr %20, ptr %5, align 8
  br label %14, !llvm.loop !8

21:                                               ; preds = %14
  %22 = load ptr, ptr %5, align 8
  %23 = load ptr, ptr %4, align 8
  call void @_ZN14SystemProperty8set_nextEPS_(ptr noundef nonnull align 8 dereferenceable(26) %22, ptr noundef %23)
  br label %24

24:                                               ; preds = %21, %10
  ret void
}