; Function Attrs: mustprogress nofree norecurse nosync nounwind memory(readwrite, inaccessiblemem: none) uwtable
define hidden void @_ZN9Arguments16PropertyList_addEPP14SystemPropertyS1_(ptr nocapture noundef %0, ptr noundef %1) local_unnamed_addr #7 align 2 {
  %3 = load ptr, ptr %0, align 8
  %4 = icmp eq ptr %3, null
  br i1 %4, label %9, label %.preheader

.preheader:                                       ; preds = %2, %.preheader
  %.0 = phi ptr [ %6, %.preheader ], [ %3, %2 ]
  %5 = getelementptr inbounds i8, ptr %.0, i64 16
  %6 = load ptr, ptr %5, align 8
  %.not = icmp eq ptr %6, null
  br i1 %.not, label %7, label %.preheader, !llvm.loop !8

7:                                                ; preds = %.preheader
  %8 = getelementptr inbounds i8, ptr %.0, i64 16
  br label %9

9:                                                ; preds = %2, %7
  %.sink = phi ptr [ %8, %7 ], [ %0, %2 ]
  store ptr %1, ptr %.sink, align 8
  ret void
}